; Listing generated by Microsoft (R) Optimizing Compiler Version 19.38.33135.0 

include listing.inc

INCLUDELIB LIBCMTD

_DATA	SEGMENT
COMM	SystemTable:QWORD
COMM	GraphicsOutputProtocol:QWORD
COMM	SimpleFileSystemProtocol:QWORD
_DATA	ENDS
PUBLIC	InitializeEFI
PUBLIC	Assert
PUBLIC	CompareGUID
EXTRN	__ImageBase:BYTE
pdata	SEGMENT
$pdata$InitializeEFI DD imagerel $LN3
	DD	imagerel $LN3+276
	DD	imagerel $unwind$InitializeEFI
$pdata$Assert DD imagerel $LN57
	DD	imagerel $LN57+1516
	DD	imagerel $unwind$Assert
$pdata$CompareGUID DD imagerel $LN9
	DD	imagerel $LN9+161
	DD	imagerel $unwind$CompareGUID
pdata	ENDS
_DATA	SEGMENT
$SG7883	DB	'[', 00H, 'S', 00H, 'u', 00H, 'c', 00H, 'c', 00H, 'e', 00H
	DB	's', 00H, 's', 00H, ']', 00H, ' ', 00H, 00H, 00H
	ORG $+2
$SG7884	DB	0aH, 00H, 0dH, 00H, 00H, 00H
	ORG $+2
$SG7887	DB	'[', 00H, ' ', 00H, 'E', 00H, 'r', 00H, 'r', 00H, 'o', 00H
	DB	'r', 00H, ' ', 00H, ']', 00H, ' ', 00H, 00H, 00H
	ORG $+2
$SG7888	DB	'[', 00H, 'W', 00H, 'a', 00H, 'r', 00H, 'n', 00H, 'i', 00H
	DB	'n', 00H, 'g', 00H, ']', 00H, ' ', 00H, 00H, 00H
	ORG $+2
$SG7889	DB	' ', 00H, ':', 00H, ' ', 00H, 00H, 00H
$SG7891	DB	'E', 00H, 'F', 00H, 'I', 00H, '_', 00H, 'L', 00H, 'O', 00H
	DB	'A', 00H, 'D', 00H, '_', 00H, 'E', 00H, 'R', 00H, 'R', 00H, 'O'
	DB	00H, 'R', 00H, 00H, 00H
	ORG $+2
$SG7893	DB	'E', 00H, 'F', 00H, 'I', 00H, '_', 00H, 'I', 00H, 'N', 00H
	DB	'V', 00H, 'A', 00H, 'L', 00H, 'I', 00H, 'D', 00H, '_', 00H, 'P'
	DB	00H, 'A', 00H, 'R', 00H, 'A', 00H, 'M', 00H, 'E', 00H, 'T', 00H
	DB	'E', 00H, 'R', 00H, 00H, 00H
	ORG $+4
$SG7895	DB	'E', 00H, 'F', 00H, 'I', 00H, '_', 00H, 'U', 00H, 'N', 00H
	DB	'S', 00H, 'U', 00H, 'P', 00H, 'P', 00H, 'O', 00H, 'R', 00H, 'T'
	DB	00H, 'E', 00H, 'D', 00H, 00H, 00H
$SG7897	DB	'E', 00H, 'F', 00H, 'I', 00H, '_', 00H, 'B', 00H, 'A', 00H
	DB	'D', 00H, '_', 00H, 'B', 00H, 'U', 00H, 'F', 00H, 'F', 00H, 'E'
	DB	00H, 'R', 00H, '_', 00H, 'S', 00H, 'I', 00H, 'Z', 00H, 'E', 00H
	DB	00H, 00H
$SG7899	DB	'E', 00H, 'F', 00H, 'I', 00H, '_', 00H, 'B', 00H, 'U', 00H
	DB	'F', 00H, 'F', 00H, 'E', 00H, 'R', 00H, '_', 00H, 'T', 00H, 'O'
	DB	00H, 'O', 00H, '_', 00H, 'S', 00H, 'M', 00H, 'A', 00H, 'L', 00H
	DB	'L', 00H, 00H, 00H
	ORG $+6
$SG7901	DB	'E', 00H, 'F', 00H, 'I', 00H, '_', 00H, 'N', 00H, 'O', 00H
	DB	'T', 00H, '_', 00H, 'R', 00H, 'E', 00H, 'A', 00H, 'D', 00H, 'Y'
	DB	00H, 00H, 00H
	ORG $+4
$SG7903	DB	'E', 00H, 'F', 00H, 'I', 00H, '_', 00H, 'D', 00H, 'E', 00H
	DB	'V', 00H, 'I', 00H, 'C', 00H, 'E', 00H, '_', 00H, 'E', 00H, 'R'
	DB	00H, 'R', 00H, 'O', 00H, 'R', 00H, 00H, 00H
	ORG $+6
$SG7905	DB	'E', 00H, 'F', 00H, 'I', 00H, '_', 00H, 'W', 00H, 'R', 00H
	DB	'I', 00H, 'T', 00H, 'E', 00H, '_', 00H, 'P', 00H, 'R', 00H, 'O'
	DB	00H, 'T', 00H, 'E', 00H, 'C', 00H, 'T', 00H, 'E', 00H, 'D', 00H
	DB	00H, 00H
$SG7907	DB	'E', 00H, 'F', 00H, 'I', 00H, '_', 00H, 'O', 00H, 'U', 00H
	DB	'T', 00H, '_', 00H, 'O', 00H, 'F', 00H, '_', 00H, 'R', 00H, 'E'
	DB	00H, 'S', 00H, 'O', 00H, 'U', 00H, 'R', 00H, 'C', 00H, 'E', 00H
	DB	'S', 00H, 00H, 00H
	ORG $+6
$SG7909	DB	'E', 00H, 'F', 00H, 'I', 00H, '_', 00H, 'V', 00H, 'O', 00H
	DB	'L', 00H, 'U', 00H, 'M', 00H, 'E', 00H, '_', 00H, 'C', 00H, 'O'
	DB	00H, 'R', 00H, 'R', 00H, 'U', 00H, 'P', 00H, 'T', 00H, 'E', 00H
	DB	'D', 00H, 00H, 00H
	ORG $+6
$SG7911	DB	'E', 00H, 'F', 00H, 'I', 00H, '_', 00H, 'V', 00H, 'O', 00H
	DB	'L', 00H, 'U', 00H, 'M', 00H, 'E', 00H, '_', 00H, 'F', 00H, 'U'
	DB	00H, 'L', 00H, 'L', 00H, 00H, 00H
$SG7913	DB	'E', 00H, 'F', 00H, 'I', 00H, '_', 00H, 'N', 00H, 'O', 00H
	DB	'_', 00H, 'M', 00H, 'E', 00H, 'D', 00H, 'I', 00H, 'A', 00H, 00H
	DB	00H
	ORG $+6
$SG7915	DB	'E', 00H, 'F', 00H, 'I', 00H, '_', 00H, 'M', 00H, 'E', 00H
	DB	'D', 00H, 'I', 00H, 'A', 00H, '_', 00H, 'C', 00H, 'H', 00H, 'A'
	DB	00H, 'N', 00H, 'G', 00H, 'E', 00H, 'D', 00H, 00H, 00H
	ORG $+4
$SG7917	DB	'E', 00H, 'F', 00H, 'I', 00H, '_', 00H, 'N', 00H, 'O', 00H
	DB	'T', 00H, '_', 00H, 'F', 00H, 'O', 00H, 'U', 00H, 'N', 00H, 'D'
	DB	00H, 00H, 00H
	ORG $+4
$SG7919	DB	'E', 00H, 'F', 00H, 'I', 00H, '_', 00H, 'A', 00H, 'C', 00H
	DB	'C', 00H, 'E', 00H, 'S', 00H, 'S', 00H, '_', 00H, 'D', 00H, 'E'
	DB	00H, 'N', 00H, 'I', 00H, 'E', 00H, 'D', 00H, 00H, 00H
	ORG $+4
$SG7921	DB	'E', 00H, 'F', 00H, 'I', 00H, '_', 00H, 'N', 00H, 'O', 00H
	DB	'_', 00H, 'R', 00H, 'E', 00H, 'S', 00H, 'P', 00H, 'O', 00H, 'N'
	DB	00H, 'S', 00H, 'E', 00H, 00H, 00H
$SG7923	DB	'E', 00H, 'F', 00H, 'I', 00H, '_', 00H, 'N', 00H, 'O', 00H
	DB	'_', 00H, 'M', 00H, 'A', 00H, 'P', 00H, 'P', 00H, 'I', 00H, 'N'
	DB	00H, 'G', 00H, 00H, 00H
	ORG $+2
$SG7925	DB	'E', 00H, 'F', 00H, 'I', 00H, '_', 00H, 'T', 00H, 'I', 00H
	DB	'M', 00H, 'E', 00H, 'O', 00H, 'U', 00H, 'T', 00H, 00H, 00H
$SG7927	DB	'E', 00H, 'F', 00H, 'I', 00H, '_', 00H, 'N', 00H, 'O', 00H
	DB	'T', 00H, '_', 00H, 'S', 00H, 'T', 00H, 'A', 00H, 'R', 00H, 'T'
	DB	00H, 'E', 00H, 'D', 00H, 00H, 00H
$SG7929	DB	'E', 00H, 'F', 00H, 'I', 00H, '_', 00H, 'A', 00H, 'L', 00H
	DB	'R', 00H, 'E', 00H, 'A', 00H, 'D', 00H, 'Y', 00H, '_', 00H, 'S'
	DB	00H, 'T', 00H, 'A', 00H, 'R', 00H, 'T', 00H, 'E', 00H, 'D', 00H
	DB	00H, 00H
$SG7931	DB	'E', 00H, 'F', 00H, 'I', 00H, '_', 00H, 'A', 00H, 'B', 00H
	DB	'O', 00H, 'R', 00H, 'T', 00H, 'E', 00H, 'D', 00H, 00H, 00H
$SG7933	DB	'E', 00H, 'F', 00H, 'I', 00H, '_', 00H, 'I', 00H, 'C', 00H
	DB	'M', 00H, 'P', 00H, '_', 00H, 'E', 00H, 'R', 00H, 'R', 00H, 'O'
	DB	00H, 'R', 00H, 00H, 00H
	ORG $+2
$SG7935	DB	'E', 00H, 'F', 00H, 'I', 00H, '_', 00H, 'T', 00H, 'F', 00H
	DB	'T', 00H, 'P', 00H, '_', 00H, 'E', 00H, 'R', 00H, 'R', 00H, 'O'
	DB	00H, 'R', 00H, 00H, 00H
	ORG $+2
$SG7937	DB	'E', 00H, 'F', 00H, 'I', 00H, '_', 00H, 'P', 00H, 'R', 00H
	DB	'O', 00H, 'T', 00H, 'O', 00H, 'C', 00H, 'O', 00H, 'L', 00H, '_'
	DB	00H, 'E', 00H, 'R', 00H, 'R', 00H, 'O', 00H, 'R', 00H, 00H, 00H
	ORG $+2
$SG7939	DB	'E', 00H, 'F', 00H, 'I', 00H, '_', 00H, 'I', 00H, 'N', 00H
	DB	'C', 00H, 'O', 00H, 'M', 00H, 'P', 00H, 'A', 00H, 'T', 00H, 'I'
	DB	00H, 'B', 00H, 'L', 00H, 'E', 00H, '_', 00H, 'V', 00H, 'E', 00H
	DB	'R', 00H, 'S', 00H, 'I', 00H, 'O', 00H, 'N', 00H, 00H, 00H
	ORG $+6
$SG7941	DB	'E', 00H, 'F', 00H, 'I', 00H, '_', 00H, 'S', 00H, 'E', 00H
	DB	'C', 00H, 'U', 00H, 'R', 00H, 'I', 00H, 'T', 00H, 'Y', 00H, '_'
	DB	00H, 'V', 00H, 'I', 00H, 'O', 00H, 'L', 00H, 'A', 00H, 'T', 00H
	DB	'I', 00H, 'O', 00H, 'N', 00H, 00H, 00H
	ORG $+2
$SG7943	DB	'E', 00H, 'F', 00H, 'I', 00H, '_', 00H, 'C', 00H, 'R', 00H
	DB	'C', 00H, '_', 00H, 'E', 00H, 'R', 00H, 'R', 00H, 'O', 00H, 'R'
	DB	00H, 00H, 00H
	ORG $+4
$SG7945	DB	'E', 00H, 'F', 00H, 'I', 00H, '_', 00H, 'E', 00H, 'N', 00H
	DB	'D', 00H, '_', 00H, 'O', 00H, 'F', 00H, '_', 00H, 'M', 00H, 'E'
	DB	00H, 'D', 00H, 'I', 00H, 'A', 00H, 00H, 00H
	ORG $+6
$SG7947	DB	'E', 00H, 'F', 00H, 'I', 00H, '_', 00H, 'E', 00H, 'N', 00H
	DB	'D', 00H, '_', 00H, 'O', 00H, 'F', 00H, '_', 00H, 'F', 00H, 'I'
	DB	00H, 'L', 00H, 'E', 00H, 00H, 00H
$SG7949	DB	'E', 00H, 'F', 00H, 'I', 00H, '_', 00H, 'I', 00H, 'N', 00H
	DB	'V', 00H, 'A', 00H, 'L', 00H, 'I', 00H, 'D', 00H, '_', 00H, 'L'
	DB	00H, 'A', 00H, 'N', 00H, 'G', 00H, 'U', 00H, 'A', 00H, 'G', 00H
	DB	'E', 00H, 00H, 00H
	ORG $+6
$SG7951	DB	'E', 00H, 'F', 00H, 'I', 00H, '_', 00H, 'C', 00H, 'O', 00H
	DB	'M', 00H, 'P', 00H, 'R', 00H, 'O', 00H, 'M', 00H, 'I', 00H, 'S'
	DB	00H, 'E', 00H, 'D', 00H, '_', 00H, 'D', 00H, 'A', 00H, 'T', 00H
	DB	'A', 00H, 00H, 00H
	ORG $+6
$SG7953	DB	'E', 00H, 'F', 00H, 'I', 00H, '_', 00H, 'I', 00H, 'P', 00H
	DB	'_', 00H, 'A', 00H, 'D', 00H, 'D', 00H, 'R', 00H, 'E', 00H, 'S'
	DB	00H, 'S', 00H, '_', 00H, 'C', 00H, 'O', 00H, 'N', 00H, 'F', 00H
	DB	'L', 00H, 'I', 00H, 'C', 00H, 'T', 00H, 00H, 00H
$SG7955	DB	'E', 00H, 'F', 00H, 'I', 00H, '_', 00H, 'H', 00H, 'T', 00H
	DB	'T', 00H, 'P', 00H, '_', 00H, 'E', 00H, 'R', 00H, 'R', 00H, 'O'
	DB	00H, 'R', 00H, 00H, 00H
	ORG $+2
$SG7957	DB	'E', 00H, 'F', 00H, 'I', 00H, '_', 00H, 'W', 00H, 'A', 00H
	DB	'R', 00H, 'N', 00H, '_', 00H, 'U', 00H, 'N', 00H, 'K', 00H, 'N'
	DB	00H, 'O', 00H, 'W', 00H, 'N', 00H, '_', 00H, 'G', 00H, 'L', 00H
	DB	'Y', 00H, 'P', 00H, 'H', 00H, 00H, 00H
	ORG $+2
$SG7959	DB	'E', 00H, 'F', 00H, 'I', 00H, '_', 00H, 'W', 00H, 'A', 00H
	DB	'R', 00H, 'N', 00H, '_', 00H, 'D', 00H, 'E', 00H, 'L', 00H, 'E'
	DB	00H, 'T', 00H, 'E', 00H, '_', 00H, 'F', 00H, 'A', 00H, 'I', 00H
	DB	'L', 00H, 'U', 00H, 'R', 00H, 'E', 00H, 00H, 00H
$SG7961	DB	'E', 00H, 'F', 00H, 'I', 00H, '_', 00H, 'W', 00H, 'A', 00H
	DB	'R', 00H, 'N', 00H, '_', 00H, 'W', 00H, 'R', 00H, 'I', 00H, 'T'
	DB	00H, 'E', 00H, '_', 00H, 'F', 00H, 'A', 00H, 'I', 00H, 'L', 00H
	DB	'U', 00H, 'R', 00H, 'E', 00H, 00H, 00H
	ORG $+2
$SG7963	DB	'E', 00H, 'F', 00H, 'I', 00H, '_', 00H, 'W', 00H, 'A', 00H
	DB	'R', 00H, 'N', 00H, '_', 00H, 'B', 00H, 'U', 00H, 'F', 00H, 'F'
	DB	00H, 'E', 00H, 'R', 00H, '_', 00H, 'T', 00H, 'O', 00H, 'O', 00H
	DB	'_', 00H, 'S', 00H, 'M', 00H, 'A', 00H, 'L', 00H, 'L', 00H, 00H
	DB	00H
	ORG $+4
$SG7965	DB	'E', 00H, 'F', 00H, 'I', 00H, '_', 00H, 'W', 00H, 'A', 00H
	DB	'R', 00H, 'N', 00H, '_', 00H, 'S', 00H, 'T', 00H, 'A', 00H, 'L'
	DB	00H, 'E', 00H, '_', 00H, 'D', 00H, 'A', 00H, 'T', 00H, 'A', 00H
	DB	00H, 00H
$SG7967	DB	'E', 00H, 'F', 00H, 'I', 00H, '_', 00H, 'W', 00H, 'A', 00H
	DB	'R', 00H, 'N', 00H, '_', 00H, 'F', 00H, 'I', 00H, 'L', 00H, 'E'
	DB	00H, '_', 00H, 'S', 00H, 'Y', 00H, 'S', 00H, 'T', 00H, 'E', 00H
	DB	'M', 00H, 00H, 00H
	ORG $+6
$SG7969	DB	'E', 00H, 'F', 00H, 'I', 00H, '_', 00H, 'W', 00H, 'A', 00H
	DB	'R', 00H, 'N', 00H, '_', 00H, 'R', 00H, 'E', 00H, 'S', 00H, 'E'
	DB	00H, 'T', 00H, '_', 00H, 'R', 00H, 'E', 00H, 'Q', 00H, 'U', 00H
	DB	'I', 00H, 'R', 00H, 'E', 00H, 'D', 00H, 00H, 00H
$SG7971	DB	'U', 00H, 'N', 00H, 'K', 00H, 'N', 00H, 'O', 00H, 'W', 00H
	DB	'N', 00H, '_', 00H, 'E', 00H, 'R', 00H, 'R', 00H, 'O', 00H, 'R'
	DB	00H, 00H, 00H
$SG7972	DB	0aH, 00H, 0dH, 00H, 00H, 00H
_DATA	ENDS
xdata	SEGMENT
$unwind$InitializeEFI DD 010901H
	DD	08209H
$unwind$Assert DD 010e01H
	DD	0620eH
$unwind$CompareGUID DD 010e01H
	DD	0220eH
xdata	ENDS
; Function compile flags: /Odtp
; File C:\Users\User\Documents\개발\운영체제\소스\Boot\EFI.c
_TEXT	SEGMENT
index$ = 0
_GUID1$ = 32
_GUID2$ = 40
CompareGUID PROC

; 103  : )	{

$LN9:
  00000	48 89 54 24 10	 mov	 QWORD PTR [rsp+16], rdx
  00005	48 89 4c 24 08	 mov	 QWORD PTR [rsp+8], rcx
  0000a	48 83 ec 18	 sub	 rsp, 24

; 104  : 	UINTN	index;
; 105  : 
; 106  : 	if (_GUID1->Data1 != _GUID2->Data1 OR _GUID1->Data2 != _GUID2->Data2 OR _GUID1->Data3 != _GUID2->Data3)	{

  0000e	48 8b 44 24 20	 mov	 rax, QWORD PTR _GUID1$[rsp]
  00013	48 8b 4c 24 28	 mov	 rcx, QWORD PTR _GUID2$[rsp]
  00018	8b 09		 mov	 ecx, DWORD PTR [rcx]
  0001a	39 08		 cmp	 DWORD PTR [rax], ecx
  0001c	75 2c		 jne	 SHORT $LN6@CompareGUI
  0001e	48 8b 44 24 20	 mov	 rax, QWORD PTR _GUID1$[rsp]
  00023	0f b7 40 04	 movzx	 eax, WORD PTR [rax+4]
  00027	48 8b 4c 24 28	 mov	 rcx, QWORD PTR _GUID2$[rsp]
  0002c	0f b7 49 04	 movzx	 ecx, WORD PTR [rcx+4]
  00030	3b c1		 cmp	 eax, ecx
  00032	75 16		 jne	 SHORT $LN6@CompareGUI
  00034	48 8b 44 24 20	 mov	 rax, QWORD PTR _GUID1$[rsp]
  00039	0f b7 40 06	 movzx	 eax, WORD PTR [rax+6]
  0003d	48 8b 4c 24 28	 mov	 rcx, QWORD PTR _GUID2$[rsp]
  00042	0f b7 49 06	 movzx	 ecx, WORD PTR [rcx+6]
  00046	3b c1		 cmp	 eax, ecx
  00048	74 04		 je	 SHORT $LN5@CompareGUI
$LN6@CompareGUI:

; 107  : 		return FALSE;

  0004a	32 c0		 xor	 al, al
  0004c	eb 4e		 jmp	 SHORT $LN1@CompareGUI
$LN5@CompareGUI:

; 108  : 	}
; 109  : 
; 110  : 	for (index = 0; index < 8; ++index) {

  0004e	48 c7 04 24 00
	00 00 00	 mov	 QWORD PTR index$[rsp], 0
  00056	eb 0b		 jmp	 SHORT $LN4@CompareGUI
$LN2@CompareGUI:
  00058	48 8b 04 24	 mov	 rax, QWORD PTR index$[rsp]
  0005c	48 ff c0	 inc	 rax
  0005f	48 89 04 24	 mov	 QWORD PTR index$[rsp], rax
$LN4@CompareGUI:
  00063	48 83 3c 24 08	 cmp	 QWORD PTR index$[rsp], 8
  00068	73 30		 jae	 SHORT $LN3@CompareGUI

; 111  : 		if (_GUID1->Data4[index] != _GUID2->Data4[index]) {

  0006a	48 8b 04 24	 mov	 rax, QWORD PTR index$[rsp]
  0006e	48 8b 4c 24 20	 mov	 rcx, QWORD PTR _GUID1$[rsp]
  00073	48 03 c8	 add	 rcx, rax
  00076	48 8b c1	 mov	 rax, rcx
  00079	0f b6 40 08	 movzx	 eax, BYTE PTR [rax+8]
  0007d	48 8b 0c 24	 mov	 rcx, QWORD PTR index$[rsp]
  00081	48 8b 54 24 28	 mov	 rdx, QWORD PTR _GUID2$[rsp]
  00086	48 03 d1	 add	 rdx, rcx
  00089	48 8b ca	 mov	 rcx, rdx
  0008c	0f b6 49 08	 movzx	 ecx, BYTE PTR [rcx+8]
  00090	3b c1		 cmp	 eax, ecx
  00092	74 04		 je	 SHORT $LN7@CompareGUI

; 112  : 			return FALSE;

  00094	32 c0		 xor	 al, al
  00096	eb 04		 jmp	 SHORT $LN1@CompareGUI
$LN7@CompareGUI:

; 113  : 		}
; 114  : 	}

  00098	eb be		 jmp	 SHORT $LN2@CompareGUI
$LN3@CompareGUI:

; 115  : 
; 116  : 	return TRUE;

  0009a	b0 01		 mov	 al, 1
$LN1@CompareGUI:

; 117  : }

  0009c	48 83 c4 18	 add	 rsp, 24
  000a0	c3		 ret	 0
CompareGUID ENDP
_TEXT	ENDS
; Function compile flags: /Odtp
; File C:\Users\User\Documents\개발\운영체제\소스\Boot\EFI.c
_TEXT	SEGMENT
StatusString$ = 32
tv130 = 40
_String$ = 64
_Status$ = 72
Assert	PROC

; 25   : )	{

$LN57:
  00000	48 89 54 24 10	 mov	 QWORD PTR [rsp+16], rdx
  00005	48 89 4c 24 08	 mov	 QWORD PTR [rsp+8], rcx
  0000a	48 83 ec 38	 sub	 rsp, 56			; 00000038H

; 26   : 	CHAR16* StatusString;
; 27   : 
; 28   : 	if (_Status == EFI_SUCCESS) {

  0000e	48 83 7c 24 48
	00		 cmp	 QWORD PTR _Status$[rsp], 0
  00014	75 65		 jne	 SHORT $LN6@Assert

; 29   : 		SystemTable->ConOut->OutputString(SystemTable->ConOut, L"[Success] ");

  00016	48 8b 05 00 00
	00 00		 mov	 rax, QWORD PTR SystemTable
  0001d	48 8b 40 40	 mov	 rax, QWORD PTR [rax+64]
  00021	48 8d 15 00 00
	00 00		 lea	 rdx, OFFSET FLAT:$SG7883
  00028	48 8b 0d 00 00
	00 00		 mov	 rcx, QWORD PTR SystemTable
  0002f	48 8b 49 40	 mov	 rcx, QWORD PTR [rcx+64]
  00033	ff 50 08	 call	 QWORD PTR [rax+8]

; 30   : 		SystemTable->ConOut->OutputString(SystemTable->ConOut, _String);

  00036	48 8b 05 00 00
	00 00		 mov	 rax, QWORD PTR SystemTable
  0003d	48 8b 40 40	 mov	 rax, QWORD PTR [rax+64]
  00041	48 8b 54 24 40	 mov	 rdx, QWORD PTR _String$[rsp]
  00046	48 8b 0d 00 00
	00 00		 mov	 rcx, QWORD PTR SystemTable
  0004d	48 8b 49 40	 mov	 rcx, QWORD PTR [rcx+64]
  00051	ff 50 08	 call	 QWORD PTR [rax+8]

; 31   : 		SystemTable->ConOut->OutputString(SystemTable->ConOut, L"\n\r");

  00054	48 8b 05 00 00
	00 00		 mov	 rax, QWORD PTR SystemTable
  0005b	48 8b 40 40	 mov	 rax, QWORD PTR [rax+64]
  0005f	48 8d 15 00 00
	00 00		 lea	 rdx, OFFSET FLAT:$SG7884
  00066	48 8b 0d 00 00
	00 00		 mov	 rcx, QWORD PTR SystemTable
  0006d	48 8b 49 40	 mov	 rcx, QWORD PTR [rcx+64]
  00071	ff 50 08	 call	 QWORD PTR [rax+8]

; 32   : 		return EFI_SUCCESS;

  00074	33 c0		 xor	 eax, eax
  00076	e9 f1 04 00 00	 jmp	 $LN1@Assert
$LN6@Assert:

; 33   : 	}
; 34   : 
; 35   : 	if (EFI_ERROR(_Status)) {

  0007b	48 83 7c 24 48
	00		 cmp	 QWORD PTR _Status$[rsp], 0
  00081	7d 22		 jge	 SHORT $LN7@Assert

; 36   : 		SystemTable->ConOut->OutputString(SystemTable->ConOut, L"[ Error ] ");

  00083	48 8b 05 00 00
	00 00		 mov	 rax, QWORD PTR SystemTable
  0008a	48 8b 40 40	 mov	 rax, QWORD PTR [rax+64]
  0008e	48 8d 15 00 00
	00 00		 lea	 rdx, OFFSET FLAT:$SG7887
  00095	48 8b 0d 00 00
	00 00		 mov	 rcx, QWORD PTR SystemTable
  0009c	48 8b 49 40	 mov	 rcx, QWORD PTR [rcx+64]
  000a0	ff 50 08	 call	 QWORD PTR [rax+8]

; 37   : 	}

  000a3	eb 20		 jmp	 SHORT $LN8@Assert
$LN7@Assert:

; 38   : 	else {
; 39   : 		SystemTable->ConOut->OutputString(SystemTable->ConOut, L"[Warning] ");

  000a5	48 8b 05 00 00
	00 00		 mov	 rax, QWORD PTR SystemTable
  000ac	48 8b 40 40	 mov	 rax, QWORD PTR [rax+64]
  000b0	48 8d 15 00 00
	00 00		 lea	 rdx, OFFSET FLAT:$SG7888
  000b7	48 8b 0d 00 00
	00 00		 mov	 rcx, QWORD PTR SystemTable
  000be	48 8b 49 40	 mov	 rcx, QWORD PTR [rcx+64]
  000c2	ff 50 08	 call	 QWORD PTR [rax+8]
$LN8@Assert:

; 40   : 	}
; 41   : 
; 42   : 	SystemTable->ConOut->OutputString(SystemTable->ConOut, _String);

  000c5	48 8b 05 00 00
	00 00		 mov	 rax, QWORD PTR SystemTable
  000cc	48 8b 40 40	 mov	 rax, QWORD PTR [rax+64]
  000d0	48 8b 54 24 40	 mov	 rdx, QWORD PTR _String$[rsp]
  000d5	48 8b 0d 00 00
	00 00		 mov	 rcx, QWORD PTR SystemTable
  000dc	48 8b 49 40	 mov	 rcx, QWORD PTR [rcx+64]
  000e0	ff 50 08	 call	 QWORD PTR [rax+8]

; 43   : 	SystemTable->ConOut->OutputString(SystemTable->ConOut, L" : ");

  000e3	48 8b 05 00 00
	00 00		 mov	 rax, QWORD PTR SystemTable
  000ea	48 8b 40 40	 mov	 rax, QWORD PTR [rax+64]
  000ee	48 8d 15 00 00
	00 00		 lea	 rdx, OFFSET FLAT:$SG7889
  000f5	48 8b 0d 00 00
	00 00		 mov	 rcx, QWORD PTR SystemTable
  000fc	48 8b 49 40	 mov	 rcx, QWORD PTR [rcx+64]
  00100	ff 50 08	 call	 QWORD PTR [rax+8]

; 44   : 
; 45   : 	switch (_Status) {

  00103	48 8b 44 24 48	 mov	 rax, QWORD PTR _Status$[rsp]
  00108	48 89 44 24 28	 mov	 QWORD PTR tv130[rsp], rax
  0010d	48 b8 0e 00 00
	00 00 00 00 80	 mov	 rax, -9223372036854775794 ; 800000000000000eH
  00117	48 39 44 24 28	 cmp	 QWORD PTR tv130[rsp], rax
  0011c	0f 87 22 01 00
	00		 ja	 $LN52@Assert
  00122	48 b8 0e 00 00
	00 00 00 00 80	 mov	 rax, -9223372036854775794 ; 800000000000000eH
  0012c	48 39 44 24 28	 cmp	 QWORD PTR tv130[rsp], rax
  00131	0f 84 28 02 00
	00		 je	 $LN22@Assert
  00137	48 b8 04 00 00
	00 00 00 00 80	 mov	 rax, -9223372036854775804 ; 8000000000000004H
  00141	48 39 44 24 28	 cmp	 QWORD PTR tv130[rsp], rax
  00146	0f 87 ba 00 00
	00		 ja	 $LN53@Assert
  0014c	48 b8 04 00 00
	00 00 00 00 80	 mov	 rax, -9223372036854775804 ; 8000000000000004H
  00156	48 39 44 24 28	 cmp	 QWORD PTR tv130[rsp], rax
  0015b	0f 84 54 01 00
	00		 je	 $LN12@Assert
  00161	48 83 7c 24 28
	06		 cmp	 QWORD PTR tv130[rsp], 6
  00167	77 4d		 ja	 SHORT $LN54@Assert
  00169	48 83 7c 24 28
	06		 cmp	 QWORD PTR tv130[rsp], 6
  0016f	0f 84 7e 03 00
	00		 je	 $LN47@Assert
  00175	48 83 7c 24 28
	01		 cmp	 QWORD PTR tv130[rsp], 1
  0017b	0f 84 2c 03 00
	00		 je	 $LN42@Assert
  00181	48 83 7c 24 28
	02		 cmp	 QWORD PTR tv130[rsp], 2
  00187	0f 84 2e 03 00
	00		 je	 $LN43@Assert
  0018d	48 83 7c 24 28
	03		 cmp	 QWORD PTR tv130[rsp], 3
  00193	0f 84 30 03 00
	00		 je	 $LN44@Assert
  00199	48 83 7c 24 28
	04		 cmp	 QWORD PTR tv130[rsp], 4
  0019f	0f 84 32 03 00
	00		 je	 $LN45@Assert
  001a5	48 83 7c 24 28
	05		 cmp	 QWORD PTR tv130[rsp], 5
  001ab	0f 84 34 03 00
	00		 je	 $LN46@Assert
  001b1	e9 59 03 00 00	 jmp	 $LN49@Assert
$LN54@Assert:
  001b6	48 83 7c 24 28
	07		 cmp	 QWORD PTR tv130[rsp], 7
  001bc	0f 84 3f 03 00
	00		 je	 $LN48@Assert
  001c2	48 b8 01 00 00
	00 00 00 00 80	 mov	 rax, -9223372036854775807 ; 8000000000000001H
  001cc	48 39 44 24 28	 cmp	 QWORD PTR tv130[rsp], rax
  001d1	0f 84 ab 00 00
	00		 je	 $LN9@Assert
  001d7	48 b8 02 00 00
	00 00 00 00 80	 mov	 rax, -9223372036854775806 ; 8000000000000002H
  001e1	48 39 44 24 28	 cmp	 QWORD PTR tv130[rsp], rax
  001e6	0f 84 a7 00 00
	00		 je	 $LN10@Assert
  001ec	48 b8 03 00 00
	00 00 00 00 80	 mov	 rax, -9223372036854775805 ; 8000000000000003H
  001f6	48 39 44 24 28	 cmp	 QWORD PTR tv130[rsp], rax
  001fb	0f 84 a3 00 00
	00		 je	 $LN11@Assert
  00201	e9 09 03 00 00	 jmp	 $LN49@Assert
$LN53@Assert:
  00206	48 b8 fb ff ff
	ff ff ff ff 7f	 mov	 rax, 9223372036854775803 ; 7ffffffffffffffbH
  00210	48 8b 4c 24 28	 mov	 rcx, QWORD PTR tv130[rsp]
  00215	48 03 c8	 add	 rcx, rax
  00218	48 8b c1	 mov	 rax, rcx
  0021b	48 89 44 24 28	 mov	 QWORD PTR tv130[rsp], rax
  00220	48 83 7c 24 28
	08		 cmp	 QWORD PTR tv130[rsp], 8
  00226	0f 87 e3 02 00
	00		 ja	 $LN49@Assert
  0022c	48 8d 05 00 00
	00 00		 lea	 rax, OFFSET FLAT:__ImageBase
  00233	48 8b 4c 24 28	 mov	 rcx, QWORD PTR tv130[rsp]
  00238	8b 8c 88 00 00
	00 00		 mov	 ecx, DWORD PTR $LN56@Assert[rax+rcx*4]
  0023f	48 03 c8	 add	 rcx, rax
  00242	ff e1		 jmp	 rcx
$LN52@Assert:
  00244	48 b8 f1 ff ff
	ff ff ff ff 7f	 mov	 rax, 9223372036854775793 ; 7ffffffffffffff1H
  0024e	48 8b 4c 24 28	 mov	 rcx, QWORD PTR tv130[rsp]
  00253	48 03 c8	 add	 rcx, rax
  00256	48 8b c1	 mov	 rax, rcx
  00259	48 89 44 24 28	 mov	 QWORD PTR tv130[rsp], rax
  0025e	48 83 7c 24 28
	14		 cmp	 QWORD PTR tv130[rsp], 20
  00264	0f 87 a5 02 00
	00		 ja	 $LN49@Assert
  0026a	48 8d 05 00 00
	00 00		 lea	 rax, OFFSET FLAT:__ImageBase
  00271	48 8b 4c 24 28	 mov	 rcx, QWORD PTR tv130[rsp]
  00276	8b 8c 88 00 00
	00 00		 mov	 ecx, DWORD PTR $LN55@Assert[rax+rcx*4]
  0027d	48 03 c8	 add	 rcx, rax
  00280	ff e1		 jmp	 rcx
$LN9@Assert:

; 46   : 		case EFI_LOAD_ERROR:			StatusString = L"EFI_LOAD_ERROR"; break;

  00282	48 8d 05 00 00
	00 00		 lea	 rax, OFFSET FLAT:$SG7891
  00289	48 89 44 24 20	 mov	 QWORD PTR StatusString$[rsp], rax
  0028e	e9 88 02 00 00	 jmp	 $LN2@Assert
$LN10@Assert:

; 47   : 		case EFI_INVALID_PARAMETER:		StatusString = L"EFI_INVALID_PARAMETER"; break;

  00293	48 8d 05 00 00
	00 00		 lea	 rax, OFFSET FLAT:$SG7893
  0029a	48 89 44 24 20	 mov	 QWORD PTR StatusString$[rsp], rax
  0029f	e9 77 02 00 00	 jmp	 $LN2@Assert
$LN11@Assert:

; 48   : 		case EFI_UNSUPPORTED:			StatusString = L"EFI_UNSUPPORTED"; break;

  002a4	48 8d 05 00 00
	00 00		 lea	 rax, OFFSET FLAT:$SG7895
  002ab	48 89 44 24 20	 mov	 QWORD PTR StatusString$[rsp], rax
  002b0	e9 66 02 00 00	 jmp	 $LN2@Assert
$LN12@Assert:

; 49   : 		case EFI_BAD_BUFFER_SIZE:		StatusString = L"EFI_BAD_BUFFER_SIZE"; break;

  002b5	48 8d 05 00 00
	00 00		 lea	 rax, OFFSET FLAT:$SG7897
  002bc	48 89 44 24 20	 mov	 QWORD PTR StatusString$[rsp], rax
  002c1	e9 55 02 00 00	 jmp	 $LN2@Assert
$LN13@Assert:

; 50   : 		case EFI_BUFFER_TOO_SMALL:		StatusString = L"EFI_BUFFER_TOO_SMALL"; break;

  002c6	48 8d 05 00 00
	00 00		 lea	 rax, OFFSET FLAT:$SG7899
  002cd	48 89 44 24 20	 mov	 QWORD PTR StatusString$[rsp], rax
  002d2	e9 44 02 00 00	 jmp	 $LN2@Assert
$LN14@Assert:

; 51   : 		case EFI_NOT_READY:				StatusString = L"EFI_NOT_READY"; break;

  002d7	48 8d 05 00 00
	00 00		 lea	 rax, OFFSET FLAT:$SG7901
  002de	48 89 44 24 20	 mov	 QWORD PTR StatusString$[rsp], rax
  002e3	e9 33 02 00 00	 jmp	 $LN2@Assert
$LN15@Assert:

; 52   : 		case EFI_DEVICE_ERROR:			StatusString = L"EFI_DEVICE_ERROR"; break;

  002e8	48 8d 05 00 00
	00 00		 lea	 rax, OFFSET FLAT:$SG7903
  002ef	48 89 44 24 20	 mov	 QWORD PTR StatusString$[rsp], rax
  002f4	e9 22 02 00 00	 jmp	 $LN2@Assert
$LN16@Assert:

; 53   : 		case EFI_WRITE_PROTECTED:		StatusString = L"EFI_WRITE_PROTECTED"; break;

  002f9	48 8d 05 00 00
	00 00		 lea	 rax, OFFSET FLAT:$SG7905
  00300	48 89 44 24 20	 mov	 QWORD PTR StatusString$[rsp], rax
  00305	e9 11 02 00 00	 jmp	 $LN2@Assert
$LN17@Assert:

; 54   : 		case EFI_OUT_OF_RESOURCES:		StatusString = L"EFI_OUT_OF_RESOURCES"; break;

  0030a	48 8d 05 00 00
	00 00		 lea	 rax, OFFSET FLAT:$SG7907
  00311	48 89 44 24 20	 mov	 QWORD PTR StatusString$[rsp], rax
  00316	e9 00 02 00 00	 jmp	 $LN2@Assert
$LN18@Assert:

; 55   : 		case EFI_VOLUME_CORRUPTED:		StatusString = L"EFI_VOLUME_CORRUPTED"; break;

  0031b	48 8d 05 00 00
	00 00		 lea	 rax, OFFSET FLAT:$SG7909
  00322	48 89 44 24 20	 mov	 QWORD PTR StatusString$[rsp], rax
  00327	e9 ef 01 00 00	 jmp	 $LN2@Assert
$LN19@Assert:

; 56   : 		case EFI_VOLUME_FULL:			StatusString = L"EFI_VOLUME_FULL"; break;

  0032c	48 8d 05 00 00
	00 00		 lea	 rax, OFFSET FLAT:$SG7911
  00333	48 89 44 24 20	 mov	 QWORD PTR StatusString$[rsp], rax
  00338	e9 de 01 00 00	 jmp	 $LN2@Assert
$LN20@Assert:

; 57   : 		case EFI_NO_MEDIA:				StatusString = L"EFI_NO_MEDIA"; break;

  0033d	48 8d 05 00 00
	00 00		 lea	 rax, OFFSET FLAT:$SG7913
  00344	48 89 44 24 20	 mov	 QWORD PTR StatusString$[rsp], rax
  00349	e9 cd 01 00 00	 jmp	 $LN2@Assert
$LN21@Assert:

; 58   : 		case EFI_MEDIA_CHANGED:			StatusString = L"EFI_MEDIA_CHANGED"; break;

  0034e	48 8d 05 00 00
	00 00		 lea	 rax, OFFSET FLAT:$SG7915
  00355	48 89 44 24 20	 mov	 QWORD PTR StatusString$[rsp], rax
  0035a	e9 bc 01 00 00	 jmp	 $LN2@Assert
$LN22@Assert:

; 59   : 		case EFI_NOT_FOUND:				StatusString = L"EFI_NOT_FOUND"; break;

  0035f	48 8d 05 00 00
	00 00		 lea	 rax, OFFSET FLAT:$SG7917
  00366	48 89 44 24 20	 mov	 QWORD PTR StatusString$[rsp], rax
  0036b	e9 ab 01 00 00	 jmp	 $LN2@Assert
$LN23@Assert:

; 60   : 		case EFI_ACCESS_DENIED:			StatusString = L"EFI_ACCESS_DENIED"; break;

  00370	48 8d 05 00 00
	00 00		 lea	 rax, OFFSET FLAT:$SG7919
  00377	48 89 44 24 20	 mov	 QWORD PTR StatusString$[rsp], rax
  0037c	e9 9a 01 00 00	 jmp	 $LN2@Assert
$LN24@Assert:

; 61   : 		case EFI_NO_RESPONSE:			StatusString = L"EFI_NO_RESPONSE"; break;

  00381	48 8d 05 00 00
	00 00		 lea	 rax, OFFSET FLAT:$SG7921
  00388	48 89 44 24 20	 mov	 QWORD PTR StatusString$[rsp], rax
  0038d	e9 89 01 00 00	 jmp	 $LN2@Assert
$LN25@Assert:

; 62   : 		case EFI_NO_MAPPING:			StatusString = L"EFI_NO_MAPPING"; break;

  00392	48 8d 05 00 00
	00 00		 lea	 rax, OFFSET FLAT:$SG7923
  00399	48 89 44 24 20	 mov	 QWORD PTR StatusString$[rsp], rax
  0039e	e9 78 01 00 00	 jmp	 $LN2@Assert
$LN26@Assert:

; 63   : 		case EFI_TIMEOUT:				StatusString = L"EFI_TIMEOUT"; break;

  003a3	48 8d 05 00 00
	00 00		 lea	 rax, OFFSET FLAT:$SG7925
  003aa	48 89 44 24 20	 mov	 QWORD PTR StatusString$[rsp], rax
  003af	e9 67 01 00 00	 jmp	 $LN2@Assert
$LN27@Assert:

; 64   : 		case EFI_NOT_STARTED:			StatusString = L"EFI_NOT_STARTED"; break;

  003b4	48 8d 05 00 00
	00 00		 lea	 rax, OFFSET FLAT:$SG7927
  003bb	48 89 44 24 20	 mov	 QWORD PTR StatusString$[rsp], rax
  003c0	e9 56 01 00 00	 jmp	 $LN2@Assert
$LN28@Assert:

; 65   : 		case EFI_ALREADY_STARTED:		StatusString = L"EFI_ALREADY_STARTED"; break;

  003c5	48 8d 05 00 00
	00 00		 lea	 rax, OFFSET FLAT:$SG7929
  003cc	48 89 44 24 20	 mov	 QWORD PTR StatusString$[rsp], rax
  003d1	e9 45 01 00 00	 jmp	 $LN2@Assert
$LN29@Assert:

; 66   : 		case EFI_ABORTED:				StatusString = L"EFI_ABORTED"; break;

  003d6	48 8d 05 00 00
	00 00		 lea	 rax, OFFSET FLAT:$SG7931
  003dd	48 89 44 24 20	 mov	 QWORD PTR StatusString$[rsp], rax
  003e2	e9 34 01 00 00	 jmp	 $LN2@Assert
$LN30@Assert:

; 67   : 		case EFI_ICMP_ERROR:			StatusString = L"EFI_ICMP_ERROR"; break;

  003e7	48 8d 05 00 00
	00 00		 lea	 rax, OFFSET FLAT:$SG7933
  003ee	48 89 44 24 20	 mov	 QWORD PTR StatusString$[rsp], rax
  003f3	e9 23 01 00 00	 jmp	 $LN2@Assert
$LN31@Assert:

; 68   : 		case EFI_TFTP_ERROR:			StatusString = L"EFI_TFTP_ERROR"; break;

  003f8	48 8d 05 00 00
	00 00		 lea	 rax, OFFSET FLAT:$SG7935
  003ff	48 89 44 24 20	 mov	 QWORD PTR StatusString$[rsp], rax
  00404	e9 12 01 00 00	 jmp	 $LN2@Assert
$LN32@Assert:

; 69   : 		case EFI_PROTOCOL_ERROR:		StatusString = L"EFI_PROTOCOL_ERROR"; break;

  00409	48 8d 05 00 00
	00 00		 lea	 rax, OFFSET FLAT:$SG7937
  00410	48 89 44 24 20	 mov	 QWORD PTR StatusString$[rsp], rax
  00415	e9 01 01 00 00	 jmp	 $LN2@Assert
$LN33@Assert:

; 70   : 		case EFI_INCOMPATIBLE_VERSION:	StatusString = L"EFI_INCOMPATIBLE_VERSION"; break;

  0041a	48 8d 05 00 00
	00 00		 lea	 rax, OFFSET FLAT:$SG7939
  00421	48 89 44 24 20	 mov	 QWORD PTR StatusString$[rsp], rax
  00426	e9 f0 00 00 00	 jmp	 $LN2@Assert
$LN34@Assert:

; 71   : 		case EFI_SECURITY_VIOLATION:	StatusString = L"EFI_SECURITY_VIOLATION"; break;

  0042b	48 8d 05 00 00
	00 00		 lea	 rax, OFFSET FLAT:$SG7941
  00432	48 89 44 24 20	 mov	 QWORD PTR StatusString$[rsp], rax
  00437	e9 df 00 00 00	 jmp	 $LN2@Assert
$LN35@Assert:

; 72   : 		case EFI_CRC_ERROR:				StatusString = L"EFI_CRC_ERROR"; break;

  0043c	48 8d 05 00 00
	00 00		 lea	 rax, OFFSET FLAT:$SG7943
  00443	48 89 44 24 20	 mov	 QWORD PTR StatusString$[rsp], rax
  00448	e9 ce 00 00 00	 jmp	 $LN2@Assert
$LN36@Assert:

; 73   : 		case EFI_END_OF_MEDIA:			StatusString = L"EFI_END_OF_MEDIA"; break;

  0044d	48 8d 05 00 00
	00 00		 lea	 rax, OFFSET FLAT:$SG7945
  00454	48 89 44 24 20	 mov	 QWORD PTR StatusString$[rsp], rax
  00459	e9 bd 00 00 00	 jmp	 $LN2@Assert
$LN37@Assert:

; 74   : 		case EFI_END_OF_FILE:			StatusString = L"EFI_END_OF_FILE"; break;

  0045e	48 8d 05 00 00
	00 00		 lea	 rax, OFFSET FLAT:$SG7947
  00465	48 89 44 24 20	 mov	 QWORD PTR StatusString$[rsp], rax
  0046a	e9 ac 00 00 00	 jmp	 $LN2@Assert
$LN38@Assert:

; 75   : 		case EFI_INVALID_LANGUAGE:		StatusString = L"EFI_INVALID_LANGUAGE"; break;

  0046f	48 8d 05 00 00
	00 00		 lea	 rax, OFFSET FLAT:$SG7949
  00476	48 89 44 24 20	 mov	 QWORD PTR StatusString$[rsp], rax
  0047b	e9 9b 00 00 00	 jmp	 $LN2@Assert
$LN39@Assert:

; 76   : 		case EFI_COMPROMISED_DATA:		StatusString = L"EFI_COMPROMISED_DATA"; break;

  00480	48 8d 05 00 00
	00 00		 lea	 rax, OFFSET FLAT:$SG7951
  00487	48 89 44 24 20	 mov	 QWORD PTR StatusString$[rsp], rax
  0048c	e9 8a 00 00 00	 jmp	 $LN2@Assert
$LN40@Assert:

; 77   : 		case EFI_IP_ADDRESS_CONFLICT:	StatusString = L"EFI_IP_ADDRESS_CONFLICT"; break;

  00491	48 8d 05 00 00
	00 00		 lea	 rax, OFFSET FLAT:$SG7953
  00498	48 89 44 24 20	 mov	 QWORD PTR StatusString$[rsp], rax
  0049d	eb 7c		 jmp	 SHORT $LN2@Assert
$LN41@Assert:

; 78   : 		case EFI_HTTP_ERROR:			StatusString = L"EFI_HTTP_ERROR"; break;

  0049f	48 8d 05 00 00
	00 00		 lea	 rax, OFFSET FLAT:$SG7955
  004a6	48 89 44 24 20	 mov	 QWORD PTR StatusString$[rsp], rax
  004ab	eb 6e		 jmp	 SHORT $LN2@Assert
$LN42@Assert:

; 79   : 		case EFI_WARN_UNKNOWN_GLYPH:	StatusString = L"EFI_WARN_UNKNOWN_GLYPH"; break;

  004ad	48 8d 05 00 00
	00 00		 lea	 rax, OFFSET FLAT:$SG7957
  004b4	48 89 44 24 20	 mov	 QWORD PTR StatusString$[rsp], rax
  004b9	eb 60		 jmp	 SHORT $LN2@Assert
$LN43@Assert:

; 80   : 		case EFI_WARN_DELETE_FAILURE:	StatusString = L"EFI_WARN_DELETE_FAILURE"; break;

  004bb	48 8d 05 00 00
	00 00		 lea	 rax, OFFSET FLAT:$SG7959
  004c2	48 89 44 24 20	 mov	 QWORD PTR StatusString$[rsp], rax
  004c7	eb 52		 jmp	 SHORT $LN2@Assert
$LN44@Assert:

; 81   : 		case EFI_WARN_WRITE_FAILURE:	StatusString = L"EFI_WARN_WRITE_FAILURE"; break;

  004c9	48 8d 05 00 00
	00 00		 lea	 rax, OFFSET FLAT:$SG7961
  004d0	48 89 44 24 20	 mov	 QWORD PTR StatusString$[rsp], rax
  004d5	eb 44		 jmp	 SHORT $LN2@Assert
$LN45@Assert:

; 82   : 		case EFI_WARN_BUFFER_TOO_SMALL: StatusString = L"EFI_WARN_BUFFER_TOO_SMALL"; break;

  004d7	48 8d 05 00 00
	00 00		 lea	 rax, OFFSET FLAT:$SG7963
  004de	48 89 44 24 20	 mov	 QWORD PTR StatusString$[rsp], rax
  004e3	eb 36		 jmp	 SHORT $LN2@Assert
$LN46@Assert:

; 83   : 		case EFI_WARN_STALE_DATA:		StatusString = L"EFI_WARN_STALE_DATA"; break;

  004e5	48 8d 05 00 00
	00 00		 lea	 rax, OFFSET FLAT:$SG7965
  004ec	48 89 44 24 20	 mov	 QWORD PTR StatusString$[rsp], rax
  004f1	eb 28		 jmp	 SHORT $LN2@Assert
$LN47@Assert:

; 84   : 		case EFI_WARN_FILE_SYSTEM:		StatusString = L"EFI_WARN_FILE_SYSTEM"; break;

  004f3	48 8d 05 00 00
	00 00		 lea	 rax, OFFSET FLAT:$SG7967
  004fa	48 89 44 24 20	 mov	 QWORD PTR StatusString$[rsp], rax
  004ff	eb 1a		 jmp	 SHORT $LN2@Assert
$LN48@Assert:

; 85   : 		case EFI_WARN_RESET_REQUIRED:	StatusString = L"EFI_WARN_RESET_REQUIRED"; break;

  00501	48 8d 05 00 00
	00 00		 lea	 rax, OFFSET FLAT:$SG7969
  00508	48 89 44 24 20	 mov	 QWORD PTR StatusString$[rsp], rax
  0050d	eb 0c		 jmp	 SHORT $LN2@Assert
$LN49@Assert:

; 86   : 		default:						StatusString = L"UNKNOWN_ERROR";

  0050f	48 8d 05 00 00
	00 00		 lea	 rax, OFFSET FLAT:$SG7971
  00516	48 89 44 24 20	 mov	 QWORD PTR StatusString$[rsp], rax
$LN2@Assert:

; 87   : 	}
; 88   : 
; 89   : 	SystemTable->ConOut->OutputString(SystemTable->ConOut, StatusString);

  0051b	48 8b 05 00 00
	00 00		 mov	 rax, QWORD PTR SystemTable
  00522	48 8b 40 40	 mov	 rax, QWORD PTR [rax+64]
  00526	48 8b 54 24 20	 mov	 rdx, QWORD PTR StatusString$[rsp]
  0052b	48 8b 0d 00 00
	00 00		 mov	 rcx, QWORD PTR SystemTable
  00532	48 8b 49 40	 mov	 rcx, QWORD PTR [rcx+64]
  00536	ff 50 08	 call	 QWORD PTR [rax+8]

; 90   : 	SystemTable->ConOut->OutputString(SystemTable->ConOut, L"\n\r");

  00539	48 8b 05 00 00
	00 00		 mov	 rax, QWORD PTR SystemTable
  00540	48 8b 40 40	 mov	 rax, QWORD PTR [rax+64]
  00544	48 8d 15 00 00
	00 00		 lea	 rdx, OFFSET FLAT:$SG7972
  0054b	48 8b 0d 00 00
	00 00		 mov	 rcx, QWORD PTR SystemTable
  00552	48 8b 49 40	 mov	 rcx, QWORD PTR [rcx+64]
  00556	ff 50 08	 call	 QWORD PTR [rax+8]

; 91   : 
; 92   : 	if (EFI_ERROR(_Status)) {

  00559	48 83 7c 24 48
	00		 cmp	 QWORD PTR _Status$[rsp], 0
  0055f	7d 09		 jge	 SHORT $LN50@Assert
$LN4@Assert:

; 93   : 		while (1);

  00561	33 c0		 xor	 eax, eax
  00563	83 f8 01	 cmp	 eax, 1
  00566	74 02		 je	 SHORT $LN5@Assert
  00568	eb f7		 jmp	 SHORT $LN4@Assert
$LN5@Assert:
$LN50@Assert:

; 94   : 	}
; 95   : 
; 96   : 	return EFI_SUCCESS;

  0056a	33 c0		 xor	 eax, eax
$LN1@Assert:

; 97   : }

  0056c	48 83 c4 38	 add	 rsp, 56			; 00000038H
  00570	c3		 ret	 0
  00571	0f 1f 00	 npad	 3
$LN56@Assert:
  00574	00 00 00 00	 DD	 $LN13@Assert
  00578	00 00 00 00	 DD	 $LN14@Assert
  0057c	00 00 00 00	 DD	 $LN15@Assert
  00580	00 00 00 00	 DD	 $LN16@Assert
  00584	00 00 00 00	 DD	 $LN17@Assert
  00588	00 00 00 00	 DD	 $LN18@Assert
  0058c	00 00 00 00	 DD	 $LN19@Assert
  00590	00 00 00 00	 DD	 $LN20@Assert
  00594	00 00 00 00	 DD	 $LN21@Assert
$LN55@Assert:
  00598	00 00 00 00	 DD	 $LN23@Assert
  0059c	00 00 00 00	 DD	 $LN24@Assert
  005a0	00 00 00 00	 DD	 $LN25@Assert
  005a4	00 00 00 00	 DD	 $LN26@Assert
  005a8	00 00 00 00	 DD	 $LN27@Assert
  005ac	00 00 00 00	 DD	 $LN28@Assert
  005b0	00 00 00 00	 DD	 $LN29@Assert
  005b4	00 00 00 00	 DD	 $LN30@Assert
  005b8	00 00 00 00	 DD	 $LN31@Assert
  005bc	00 00 00 00	 DD	 $LN32@Assert
  005c0	00 00 00 00	 DD	 $LN33@Assert
  005c4	00 00 00 00	 DD	 $LN34@Assert
  005c8	00 00 00 00	 DD	 $LN35@Assert
  005cc	00 00 00 00	 DD	 $LN36@Assert
  005d0	00 00 00 00	 DD	 $LN49@Assert
  005d4	00 00 00 00	 DD	 $LN49@Assert
  005d8	00 00 00 00	 DD	 $LN37@Assert
  005dc	00 00 00 00	 DD	 $LN38@Assert
  005e0	00 00 00 00	 DD	 $LN39@Assert
  005e4	00 00 00 00	 DD	 $LN40@Assert
  005e8	00 00 00 00	 DD	 $LN41@Assert
Assert	ENDP
_TEXT	ENDS
; Function compile flags: /Odtp
; File C:\Users\User\Documents\개발\운영체제\소스\Boot\EFI.c
_TEXT	SEGMENT
$S1$ = 32
$S2$ = 48
_SystemTable$ = 80
InitializeEFI PROC

; 10   : )	{

$LN3:
  00000	48 89 4c 24 08	 mov	 QWORD PTR [rsp+8], rcx
  00005	48 83 ec 48	 sub	 rsp, 72			; 00000048H

; 11   : 	SystemTable = _SystemTable;

  00009	48 8b 44 24 50	 mov	 rax, QWORD PTR _SystemTable$[rsp]
  0000e	48 89 05 00 00
	00 00		 mov	 QWORD PTR SystemTable, rax

; 12   : 
; 13   : 	SystemTable->ConOut->ClearScreen(SystemTable->ConOut);

  00015	48 8b 05 00 00
	00 00		 mov	 rax, QWORD PTR SystemTable
  0001c	48 8b 40 40	 mov	 rax, QWORD PTR [rax+64]
  00020	48 8b 0d 00 00
	00 00		 mov	 rcx, QWORD PTR SystemTable
  00027	48 8b 49 40	 mov	 rcx, QWORD PTR [rcx+64]
  0002b	ff 50 30	 call	 QWORD PTR [rax+48]

; 14   : 	SystemTable->BootServices->SetWatchdogTimer(0, 0, 0, NULL);

  0002e	48 8b 05 00 00
	00 00		 mov	 rax, QWORD PTR SystemTable
  00035	48 8b 40 60	 mov	 rax, QWORD PTR [rax+96]
  00039	45 33 c9	 xor	 r9d, r9d
  0003c	45 33 c0	 xor	 r8d, r8d
  0003f	33 d2		 xor	 edx, edx
  00041	33 c9		 xor	 ecx, ecx
  00043	ff 90 00 01 00
	00		 call	 QWORD PTR [rax+256]

; 15   : 	SystemTable->BootServices->LocateProtocol(&((EFI_GUID)EFI_GRAPHICS_OUTPUT_PROTOCOL_GUID), NULL, (VOID**)(&GraphicsOutputProtocol));

  00049	c7 44 24 20 de
	a9 42 90	 mov	 DWORD PTR $S1$[rsp], -1874679330 ; 9042a9deH
  00051	b8 dc 23 00 00	 mov	 eax, 9180		; 000023dcH
  00056	66 89 44 24 24	 mov	 WORD PTR $S1$[rsp+4], ax
  0005b	b8 38 4a 00 00	 mov	 eax, 19000		; 00004a38H
  00060	66 89 44 24 26	 mov	 WORD PTR $S1$[rsp+6], ax
  00065	c6 44 24 28 96	 mov	 BYTE PTR $S1$[rsp+8], 150 ; 00000096H
  0006a	c6 44 24 29 fb	 mov	 BYTE PTR $S1$[rsp+9], 251 ; 000000fbH
  0006f	c6 44 24 2a 7a	 mov	 BYTE PTR $S1$[rsp+10], 122 ; 0000007aH
  00074	c6 44 24 2b de	 mov	 BYTE PTR $S1$[rsp+11], 222 ; 000000deH
  00079	c6 44 24 2c d0	 mov	 BYTE PTR $S1$[rsp+12], 208 ; 000000d0H
  0007e	c6 44 24 2d 80	 mov	 BYTE PTR $S1$[rsp+13], 128 ; 00000080H
  00083	c6 44 24 2e 51	 mov	 BYTE PTR $S1$[rsp+14], 81 ; 00000051H
  00088	c6 44 24 2f 6a	 mov	 BYTE PTR $S1$[rsp+15], 106 ; 0000006aH
  0008d	48 8b 05 00 00
	00 00		 mov	 rax, QWORD PTR SystemTable
  00094	48 8b 40 60	 mov	 rax, QWORD PTR [rax+96]
  00098	4c 8d 05 00 00
	00 00		 lea	 r8, OFFSET FLAT:GraphicsOutputProtocol
  0009f	33 d2		 xor	 edx, edx
  000a1	48 8d 4c 24 20	 lea	 rcx, QWORD PTR $S1$[rsp]
  000a6	ff 90 40 01 00
	00		 call	 QWORD PTR [rax+320]

; 16   : 	SystemTable->BootServices->LocateProtocol(&((EFI_GUID)EFI_SIMPLE_FILE_SYSTEM_PROTOCOL_GUID), NULL, (VOID**)(&SimpleFileSystemProtocol));

  000ac	c7 44 24 30 22
	5b 4e 96	 mov	 DWORD PTR $S2$[rsp], -1773249758 ; 964e5b22H
  000b4	b8 59 64 00 00	 mov	 eax, 25689		; 00006459H
  000b9	66 89 44 24 34	 mov	 WORD PTR $S2$[rsp+4], ax
  000be	b8 d2 11 00 00	 mov	 eax, 4562		; 000011d2H
  000c3	66 89 44 24 36	 mov	 WORD PTR $S2$[rsp+6], ax
  000c8	c6 44 24 38 8e	 mov	 BYTE PTR $S2$[rsp+8], 142 ; 0000008eH
  000cd	c6 44 24 39 39	 mov	 BYTE PTR $S2$[rsp+9], 57 ; 00000039H
  000d2	c6 44 24 3a 00	 mov	 BYTE PTR $S2$[rsp+10], 0
  000d7	c6 44 24 3b a0	 mov	 BYTE PTR $S2$[rsp+11], 160 ; 000000a0H
  000dc	c6 44 24 3c c9	 mov	 BYTE PTR $S2$[rsp+12], 201 ; 000000c9H
  000e1	c6 44 24 3d 69	 mov	 BYTE PTR $S2$[rsp+13], 105 ; 00000069H
  000e6	c6 44 24 3e 72	 mov	 BYTE PTR $S2$[rsp+14], 114 ; 00000072H
  000eb	c6 44 24 3f 3b	 mov	 BYTE PTR $S2$[rsp+15], 59 ; 0000003bH
  000f0	48 8b 05 00 00
	00 00		 mov	 rax, QWORD PTR SystemTable
  000f7	48 8b 40 60	 mov	 rax, QWORD PTR [rax+96]
  000fb	4c 8d 05 00 00
	00 00		 lea	 r8, OFFSET FLAT:SimpleFileSystemProtocol
  00102	33 d2		 xor	 edx, edx
  00104	48 8d 4c 24 30	 lea	 rcx, QWORD PTR $S2$[rsp]
  00109	ff 90 40 01 00
	00		 call	 QWORD PTR [rax+320]

; 17   : 
; 18   : 	return;
; 19   : }

  0010f	48 83 c4 48	 add	 rsp, 72			; 00000048H
  00113	c3		 ret	 0
InitializeEFI ENDP
_TEXT	ENDS
END
